; Function Attrs: mustprogress nofree norecurse nosync nounwind memory(argmem: readwrite) uwtable
define void @_ZN18duckdb_fastpforlib8internal12__fastpack32EPKmPj(ptr noalias noundef readonly captures(none) %0, ptr noalias noundef writeonly captures(none) %1) local_unnamed_addr #3 {
  br label %4

3:                                                ; preds = %4
  ret void

4:                                                ; preds = %2, %4
  %indvars.iv = phi i64 [ 0, %2 ], [ %indvars.iv.next, %4 ]
  %5 = getelementptr inbounds nuw i64, ptr %0, i64 %indvars.iv
  %6 = load i64, ptr %5, align 8, !tbaa !9
  %7 = trunc i64 %6 to i32
  %8 = getelementptr inbounds nuw i32, ptr %1, i64 %indvars.iv
  store i32 %7, ptr %8, align 4, !tbaa !7
  %indvars.iv.next = add nuw nsw i64 %indvars.iv, 1
  %exitcond.not = icmp eq i64 %indvars.iv.next, 32
  br i1 %exitcond.not, label %3, label %4, !llvm.loop !14484
}